; ModuleID = 'source-C-CXX/14/280.cpp'
source_filename = "source-C-CXX/14/280.cpp"
target datalayout = "e-m:e-p270:32:32-p271:32:32-p272:64:64-i64:64-f80:128-n8:16:32:64-S128"
target triple = "x86_64-pc-linux-gnu"

%"class.std::ios_base::Init" = type { i8 }
%"class.std::basic_istream" = type { i32 (...)**, i64, %"class.std::basic_ios" }
%"class.std::basic_ios" = type { %"class.std::ios_base", %"class.std::basic_ostream"*, i8, i8, %"class.std::basic_streambuf"*, %"class.std::ctype"*, %"class.std::num_put"*, %"class.std::num_get"* }
%"class.std::ios_base" = type { i32 (...)**, i64, i64, i32, i32, i32, %"struct.std::ios_base::_Callback_list"*, %"struct.std::ios_base::_Words", [8 x %"struct.std::ios_base::_Words"], i32, %"struct.std::ios_base::_Words"*, %"class.std::locale" }
%"struct.std::ios_base::_Callback_list" = type { %"struct.std::ios_base::_Callback_list"*, void (i32, %"class.std::ios_base"*, i32)*, i32, i32 }
%"struct.std::ios_base::_Words" = type { i8*, i64 }
%"class.std::locale" = type { %"class.std::locale::_Impl"* }
%"class.std::locale::_Impl" = type { i32, %"class.std::locale::facet"**, i64, %"class.std::locale::facet"**, i8** }
%"class.std::locale::facet" = type <{ i32 (...)**, i32, [4 x i8] }>
%"class.std::basic_ostream" = type { i32 (...)**, %"class.std::basic_ios" }
%"class.std::basic_streambuf" = type { i32 (...)**, i8*, i8*, i8*, i8*, i8*, i8*, %"class.std::locale" }
%"class.std::ctype" = type <{ %"class.std::locale::facet.base", [4 x i8], %struct.__locale_struct*, i8, [7 x i8], i32*, i32*, i16*, i8, [256 x i8], [256 x i8], i8, [6 x i8] }>
%"class.std::locale::facet.base" = type <{ i32 (...)**, i32 }>
%struct.__locale_struct = type { [13 x %struct.__locale_data*], i16*, i32*, i32*, [13 x i8*] }
%struct.__locale_data = type opaque
%"class.std::num_put" = type { %"class.std::locale::facet.base", [4 x i8] }
%"class.std::num_get" = type { %"class.std::locale::facet.base", [4 x i8] }

@_ZStL8__ioinit = internal global %"class.std::ios_base::Init" zeroinitializer, align 1
@__dso_handle = external hidden global i8
@n = dso_local global i32 0, align 4
@map = dso_local global [1010 x [1010 x i32]] zeroinitializer, align 16
@_ZSt3cin = external global %"class.std::basic_istream", align 8
@_ZSt4cout = external global %"class.std::basic_ostream", align 8
@llvm.global_ctors = appending global [1 x { i32, void ()*, i8* }] [{ i32, void ()*, i8* } { i32 65535, void ()* @_GLOBAL__sub_I_280.cpp, i8* null }]

declare void @_ZNSt8ios_base4InitC1Ev(%"class.std::ios_base::Init"* nonnull align 1 dereferenceable(1)) unnamed_addr #0

; Function Attrs: nounwind
declare void @_ZNSt8ios_base4InitD1Ev(%"class.std::ios_base::Init"* nonnull align 1 dereferenceable(1)) unnamed_addr #1

; Function Attrs: nofree nounwind
declare i32 @__cxa_atexit(void (i8*)*, i8*, i8*) local_unnamed_addr #2

; Function Attrs: mustprogress norecurse sspstrong uwtable
define dso_local i32 @main() local_unnamed_addr #3 {
  %1 = tail call nonnull align 8 dereferenceable(16) %"class.std::basic_istream"* @_ZNSirsERi(%"class.std::basic_istream"* nonnull align 8 dereferenceable(16) @_ZSt3cin, i32* nonnull align 4 dereferenceable(4) @n)
  %2 = load i32, i32* @n, align 4, !tbaa !5
  %3 = icmp sgt i32 %2, 0
  br i1 %3, label %4, label %21

4:                                                ; preds = %0, %16
  %5 = phi i32 [ %17, %16 ], [ %2, %0 ]
  %6 = phi i64 [ %19, %16 ], [ 0, %0 ]
  %7 = icmp sgt i32 %5, 0
  br i1 %7, label %8, label %16

8:                                                ; preds = %4, %8
  %9 = phi i64 [ %12, %8 ], [ 0, %4 ]
  %10 = getelementptr inbounds [1010 x [1010 x i32]], [1010 x [1010 x i32]]* @map, i64 0, i64 %6, i64 %9
  %11 = tail call nonnull align 8 dereferenceable(16) %"class.std::basic_istream"* @_ZNSirsERi(%"class.std::basic_istream"* nonnull align 8 dereferenceable(16) @_ZSt3cin, i32* nonnull align 4 dereferenceable(4) %10)
  %12 = add nuw nsw i64 %9, 1
  %13 = load i32, i32* @n, align 4, !tbaa !5
  %14 = sext i32 %13 to i64
  %15 = icmp slt i64 %12, %14
  br i1 %15, label %8, label %16, !llvm.loop !9

16:                                               ; preds = %8, %4
  %17 = phi i32 [ %5, %4 ], [ %13, %8 ]
  %18 = sext i32 %17 to i64
  %19 = add nuw nsw i64 %6, 1
  %20 = icmp slt i64 %19, %18
  br i1 %20, label %4, label %21, !llvm.loop !11

21:                                               ; preds = %16, %0
  tail call void @_Z4workv()
  ret i32 0
}

; Function Attrs: mustprogress sspstrong uwtable
define dso_local void @_Z4initv() local_unnamed_addr #4 {
  %1 = tail call nonnull align 8 dereferenceable(16) %"class.std::basic_istream"* @_ZNSirsERi(%"class.std::basic_istream"* nonnull align 8 dereferenceable(16) @_ZSt3cin, i32* nonnull align 4 dereferenceable(4) @n)
  %2 = load i32, i32* @n, align 4, !tbaa !5
  %3 = icmp sgt i32 %2, 0
  br i1 %3, label %4, label %21

4:                                                ; preds = %0, %16
  %5 = phi i32 [ %17, %16 ], [ %2, %0 ]
  %6 = phi i64 [ %19, %16 ], [ 0, %0 ]
  %7 = icmp sgt i32 %5, 0
  br i1 %7, label %8, label %16

8:                                                ; preds = %4, %8
  %9 = phi i64 [ %12, %8 ], [ 0, %4 ]
  %10 = getelementptr inbounds [1010 x [1010 x i32]], [1010 x [1010 x i32]]* @map, i64 0, i64 %6, i64 %9
  %11 = tail call nonnull align 8 dereferenceable(16) %"class.std::basic_istream"* @_ZNSirsERi(%"class.std::basic_istream"* nonnull align 8 dereferenceable(16) @_ZSt3cin, i32* nonnull align 4 dereferenceable(4) %10)
  %12 = add nuw nsw i64 %9, 1
  %13 = load i32, i32* @n, align 4, !tbaa !5
  %14 = sext i32 %13 to i64
  %15 = icmp slt i64 %12, %14
  br i1 %15, label %8, label %16, !llvm.loop !9

16:                                               ; preds = %8, %4
  %17 = phi i32 [ %5, %4 ], [ %13, %8 ]
  %18 = sext i32 %17 to i64
  %19 = add nuw nsw i64 %6, 1
  %20 = icmp slt i64 %19, %18
  br i1 %20, label %4, label %21, !llvm.loop !11

21:                                               ; preds = %16, %0
  ret void
}

; Function Attrs: mustprogress sspstrong uwtable
define dso_local void @_Z4workv() local_unnamed_addr #4 {
  %1 = load i32, i32* @n, align 4, !tbaa !5
  %2 = add nsw i32 %1, -1
  %3 = icmp sgt i32 %1, 0
  br i1 %3, label %4, label %48

4:                                                ; preds = %0
  %5 = zext i32 %1 to i64
  br label %6

6:                                                ; preds = %4, %16
  %7 = phi i64 [ 0, %4 ], [ %17, %16 ]
  br label %8

8:                                                ; preds = %6, %13
  %9 = phi i64 [ 0, %6 ], [ %14, %13 ]
  %10 = getelementptr inbounds [1010 x [1010 x i32]], [1010 x [1010 x i32]]* @map, i64 0, i64 %7, i64 %9
  %11 = load i32, i32* %10, align 4, !tbaa !5
  %12 = icmp eq i32 %11, 0
  br i1 %12, label %19, label %13

13:                                               ; preds = %8
  %14 = add nuw nsw i64 %9, 1
  %15 = icmp eq i64 %14, %5
  br i1 %15, label %16, label %8, !llvm.loop !13

16:                                               ; preds = %13
  %17 = add nuw nsw i64 %7, 1
  %18 = icmp eq i64 %17, %5
  br i1 %18, label %24, label %6, !llvm.loop !14

19:                                               ; preds = %8
  %20 = trunc i64 %7 to i32
  %21 = trunc i64 %9 to i32
  %22 = xor i32 %20, -1
  %23 = xor i32 %21, -1
  br label %24

24:                                               ; preds = %16, %19
  %25 = phi i32 [ %22, %19 ], [ -1, %16 ]
  %26 = phi i32 [ %23, %19 ], [ -1, %16 ]
  br i1 %3, label %27, label %48

27:                                               ; preds = %24
  %28 = zext i32 %1 to i64
  %29 = zext i32 %1 to i64
  br label %32

30:                                               ; preds = %35
  %31 = icmp sgt i64 %33, 1
  br i1 %31, label %32, label %48

32:                                               ; preds = %27, %30
  %33 = phi i64 [ %29, %27 ], [ %34, %30 ]
  %34 = add nsw i64 %33, -1
  br label %35

35:                                               ; preds = %32, %40
  %36 = phi i64 [ %28, %32 ], [ %45, %40 ]
  %37 = phi i32 [ %1, %32 ], [ %38, %40 ]
  %38 = add nsw i32 %37, -1
  %39 = icmp sgt i64 %36, 0
  br i1 %39, label %40, label %30

40:                                               ; preds = %35
  %41 = zext i32 %38 to i64
  %42 = getelementptr inbounds [1010 x [1010 x i32]], [1010 x [1010 x i32]]* @map, i64 0, i64 %34, i64 %41
  %43 = load i32, i32* %42, align 4, !tbaa !5
  %44 = icmp eq i32 %43, 0
  %45 = add nsw i64 %36, -1
  br i1 %44, label %46, label %35, !llvm.loop !15

46:                                               ; preds = %40
  %47 = trunc i64 %34 to i32
  br label %48

48:                                               ; preds = %30, %0, %46, %24
  %49 = phi i32 [ %26, %24 ], [ %26, %46 ], [ -1, %0 ], [ %26, %30 ]
  %50 = phi i32 [ %25, %24 ], [ %25, %46 ], [ -1, %0 ], [ %25, %30 ]
  %51 = phi i32 [ %2, %24 ], [ %47, %46 ], [ %2, %0 ], [ %2, %30 ]
  %52 = phi i32 [ %2, %24 ], [ %38, %46 ], [ %2, %0 ], [ %2, %30 ]
  %53 = add i32 %51, %50
  %54 = add i32 %52, %49
  %55 = mul nsw i32 %54, %53
  %56 = tail call nonnull align 8 dereferenceable(8) %"class.std::basic_ostream"* @_ZNSolsEi(%"class.std::basic_ostream"* nonnull align 8 dereferenceable(8) @_ZSt4cout, i32 %55)
  %57 = bitcast %"class.std::basic_ostream"* %56 to i8**
  %58 = load i8*, i8** %57, align 8, !tbaa !16
  %59 = getelementptr i8, i8* %58, i64 -24
  %60 = bitcast i8* %59 to i64*
  %61 = load i64, i64* %60, align 8
  %62 = bitcast %"class.std::basic_ostream"* %56 to i8*
  %63 = add nsw i64 %61, 240
  %64 = getelementptr inbounds i8, i8* %62, i64 %63
  %65 = bitcast i8* %64 to %"class.std::ctype"**
  %66 = load %"class.std::ctype"*, %"class.std::ctype"** %65, align 8, !tbaa !18
  %67 = icmp eq %"class.std::ctype"* %66, null
  br i1 %67, label %68, label %69

68:                                               ; preds = %48
  tail call void @_ZSt16__throw_bad_castv() #7
  unreachable

69:                                               ; preds = %48
  %70 = getelementptr inbounds %"class.std::ctype", %"class.std::ctype"* %66, i64 0, i32 8
  %71 = load i8, i8* %70, align 8, !tbaa !22
  %72 = icmp eq i8 %71, 0
  br i1 %72, label %76, label %73

73:                                               ; preds = %69
  %74 = getelementptr inbounds %"class.std::ctype", %"class.std::ctype"* %66, i64 0, i32 9, i64 10
  %75 = load i8, i8* %74, align 1, !tbaa !24
  br label %82

76:                                               ; preds = %69
  tail call void @_ZNKSt5ctypeIcE13_M_widen_initEv(%"class.std::ctype"* nonnull align 8 dereferenceable(570) %66)
  %77 = bitcast %"class.std::ctype"* %66 to i8 (%"class.std::ctype"*, i8)***
  %78 = load i8 (%"class.std::ctype"*, i8)**, i8 (%"class.std::ctype"*, i8)*** %77, align 8, !tbaa !16
  %79 = getelementptr inbounds i8 (%"class.std::ctype"*, i8)*, i8 (%"class.std::ctype"*, i8)** %78, i64 6
  %80 = load i8 (%"class.std::ctype"*, i8)*, i8 (%"class.std::ctype"*, i8)** %79, align 8
  %81 = tail call signext i8 %80(%"class.std::ctype"* nonnull align 8 dereferenceable(570) %66, i8 signext 10)
  br label %82

82:                                               ; preds = %73, %76
  %83 = phi i8 [ %75, %73 ], [ %81, %76 ]
  %84 = tail call nonnull align 8 dereferenceable(8) %"class.std::basic_ostream"* @_ZNSo3putEc(%"class.std::basic_ostream"* nonnull align 8 dereferenceable(8) %56, i8 signext %83)
  %85 = tail call nonnull align 8 dereferenceable(8) %"class.std::basic_ostream"* @_ZNSo5flushEv(%"class.std::basic_ostream"* nonnull align 8 dereferenceable(8) %84)
  ret void
}

declare nonnull align 8 dereferenceable(16) %"class.std::basic_istream"* @_ZNSirsERi(%"class.std::basic_istream"* nonnull align 8 dereferenceable(16), i32* nonnull align 4 dereferenceable(4)) local_unnamed_addr #0

declare nonnull align 8 dereferenceable(8) %"class.std::basic_ostream"* @_ZNSolsEi(%"class.std::basic_ostream"* nonnull align 8 dereferenceable(8), i32) local_unnamed_addr #0

declare nonnull align 8 dereferenceable(8) %"class.std::basic_ostream"* @_ZNSo3putEc(%"class.std::basic_ostream"* nonnull align 8 dereferenceable(8), i8 signext) local_unnamed_addr #0

declare nonnull align 8 dereferenceable(8) %"class.std::basic_ostream"* @_ZNSo5flushEv(%"class.std::basic_ostream"* nonnull align 8 dereferenceable(8)) local_unnamed_addr #0

; Function Attrs: noreturn
declare void @_ZSt16__throw_bad_castv() local_unnamed_addr #5

declare void @_ZNKSt5ctypeIcE13_M_widen_initEv(%"class.std::ctype"* nonnull align 8 dereferenceable(570)) local_unnamed_addr #0

; Function Attrs: sspstrong uwtable
define internal void @_GLOBAL__sub_I_280.cpp() #6 section ".text.startup" {
  tail call void @_ZNSt8ios_base4InitC1Ev(%"class.std::ios_base::Init"* nonnull align 1 dereferenceable(1) @_ZStL8__ioinit)
  %1 = tail call i32 @__cxa_atexit(void (i8*)* bitcast (void (%"class.std::ios_base::Init"*)* @_ZNSt8ios_base4InitD1Ev to void (i8*)*), i8* getelementptr inbounds (%"class.std::ios_base::Init", %"class.std::ios_base::Init"* @_ZStL8__ioinit, i64 0, i32 0), i8* nonnull @__dso_handle) #8
  ret void
}


!llvm.module.flags = !{!0, !1, !2, !3}
!llvm.ident = !{!4}

!0 = !{i32 1, !"wchar_size", i32 4}
!1 = !{i32 7, !"PIC Level", i32 2}
!2 = !{i32 7, !"PIE Level", i32 2}
!3 = !{i32 7, !"uwtable", i32 1}
!4 = !{!"clang version 13.0.0"}
!5 = !{!6, !6, i64 0}
!6 = !{!"int", !7, i64 0}
!7 = !{!"omnipotent char", !8, i64 0}
!8 = !{!"Simple C++ TBAA"}
!9 = distinct !{!9, !10}
!10 = !{!"llvm.loop.mustprogress"}
!11 = distinct !{!11, !10, !12}
!12 = !{!"llvm.loop.unswitch.partial.disable"}
!13 = distinct !{!13, !10}
!14 = distinct !{!14, !10}
!15 = distinct !{!15, !10}
!16 = !{!17, !17, i64 0}
!17 = !{!"vtable pointer", !8, i64 0}
!18 = !{!19, !20, i64 240}
!19 = !{!"_ZTSSt9basic_iosIcSt11char_traitsIcEE", !20, i64 216, !7, i64 224, !21, i64 225, !20, i64 232, !20, i64 240, !20, i64 248, !20, i64 256}
!20 = !{!"any pointer", !7, i64 0}
!21 = !{!"bool", !7, i64 0}
!22 = !{!23, !7, i64 56}
!23 = !{!"_ZTSSt5ctypeIcE", !20, i64 16, !21, i64 24, !20, i64 32, !20, i64 40, !20, i64 48, !7, i64 56, !7, i64 57, !7, i64 313, !7, i64 569}
!24 = !{!7, !7, i64 0}
